target datalayout = "e-m:e-p270:32:32-p271:32:32-p272:64:64-i64:64-i128:128-f80:128-n8:16:32:64-S128"
target triple = "x86_64-unknown-linux-gnu"

%struct.iovec = type { ptr, i64 }
%struct.QEMUIOVector = type { ptr, i32, %union.anon }
%union.anon = type { %struct.anon }
%struct.anon = type { i32, %struct.iovec }
%struct.anon.0 = type { [12 x i8], i64 }

@.str.1 = private unnamed_addr constant [19 x i8] c"../qemu/util/iov.c\00", align 1
@.str.10 = private unnamed_addr constant [29 x i8] c"offset + bytes <= qiov->size\00", align 1
@__PRETTY_FUNCTION__.qemu_iovec_is_zero = private unnamed_addr constant [57 x i8] c"_Bool qemu_iovec_is_zero(QEMUIOVector *, size_t, size_t)\00", align 1

; Function Attrs: nounwind sspstrong uwtable
define internal ptr @iov_skip_offset(ptr noundef %iov, i64 noundef %offset, ptr noundef %remaining_offset) #0 {
entry:
  %iov.addr = alloca ptr, align 8
  %offset.addr = alloca i64, align 8
  %remaining_offset.addr = alloca ptr, align 8
  store ptr %iov, ptr %iov.addr, align 8
  store i64 %offset, ptr %offset.addr, align 8
  store ptr %remaining_offset, ptr %remaining_offset.addr, align 8
  br label %while.cond

while.cond:                                       ; preds = %while.body, %entry
  %0 = load i64, ptr %offset.addr, align 8
  %cmp = icmp ugt i64 %0, 0
  br i1 %cmp, label %land.rhs, label %land.end

land.rhs:                                         ; preds = %while.cond
  %1 = load i64, ptr %offset.addr, align 8
  %2 = load ptr, ptr %iov.addr, align 8
  %iov_len = getelementptr inbounds %struct.iovec, ptr %2, i32 0, i32 1
  %3 = load i64, ptr %iov_len, align 8
  %cmp1 = icmp uge i64 %1, %3
  br label %land.end

land.end:                                         ; preds = %land.rhs, %while.cond
  %4 = phi i1 [ false, %while.cond ], [ %cmp1, %land.rhs ]
  br i1 %4, label %while.body, label %while.end

while.body:                                       ; preds = %land.end
  %5 = load ptr, ptr %iov.addr, align 8
  %iov_len2 = getelementptr inbounds %struct.iovec, ptr %5, i32 0, i32 1
  %6 = load i64, ptr %iov_len2, align 8
  %7 = load i64, ptr %offset.addr, align 8
  %sub = sub i64 %7, %6
  store i64 %sub, ptr %offset.addr, align 8
  %8 = load ptr, ptr %iov.addr, align 8
  %incdec.ptr = getelementptr %struct.iovec, ptr %8, i32 1
  store ptr %incdec.ptr, ptr %iov.addr, align 8
  br label %while.cond, !llvm.loop !18

while.end:                                        ; preds = %land.end
  %9 = load i64, ptr %offset.addr, align 8
  %10 = load ptr, ptr %remaining_offset.addr, align 8
  store i64 %9, ptr %10, align 8
  %11 = load ptr, ptr %iov.addr, align 8
  ret ptr %11
}

; Function Attrs: nounwind sspstrong uwtable
define dso_local zeroext i1 @qemu_iovec_is_zero(ptr noundef %qiov, i64 noundef %offset, i64 noundef %bytes) #0 {
entry:
  %retval = alloca i1, align 1
  %qiov.addr = alloca ptr, align 8
  %offset.addr = alloca i64, align 8
  %bytes.addr = alloca i64, align 8
  %iov = alloca ptr, align 8
  %current_offset = alloca i64, align 8
  %base = alloca ptr, align 8
  %len = alloca i64, align 8
  %_a10 = alloca i64, align 8
  %_b11 = alloca i64, align 8
  %tmp = alloca i64, align 8
  store ptr %qiov, ptr %qiov.addr, align 8
  store i64 %offset, ptr %offset.addr, align 8
  store i64 %bytes, ptr %bytes.addr, align 8
  %0 = load i64, ptr %offset.addr, align 8
  %1 = load i64, ptr %bytes.addr, align 8
  %add = add i64 %0, %1
  %2 = load ptr, ptr %qiov.addr, align 8
  %3 = getelementptr inbounds %struct.QEMUIOVector, ptr %2, i32 0, i32 2
  %size = getelementptr inbounds %struct.anon.0, ptr %3, i32 0, i32 1
  %4 = load i64, ptr %size, align 8
  %cmp = icmp ule i64 %add, %4
  br i1 %cmp, label %if.then, label %if.else

if.then:                                          ; preds = %entry
  br label %if.end

if.else:                                          ; preds = %entry
  call void @__assert_fail(ptr noundef @.str.10, ptr noundef @.str.1, i32 noundef 427, ptr noundef @__PRETTY_FUNCTION__.qemu_iovec_is_zero) #9
  unreachable

if.end:                                           ; preds = %if.then
  %5 = load ptr, ptr %qiov.addr, align 8
  %iov1 = getelementptr inbounds %struct.QEMUIOVector, ptr %5, i32 0, i32 0
  %6 = load ptr, ptr %iov1, align 8
  %7 = load i64, ptr %offset.addr, align 8
  %call = call ptr @iov_skip_offset(ptr noundef %6, i64 noundef %7, ptr noundef %current_offset)
  store ptr %call, ptr %iov, align 8
  br label %while.cond

while.cond:                                       ; preds = %if.end5, %if.end
  %8 = load i64, ptr %bytes.addr, align 8
  %tobool = icmp ne i64 %8, 0
  br i1 %tobool, label %while.body, label %while.end

while.body:                                       ; preds = %while.cond
  %9 = load ptr, ptr %iov, align 8
  %iov_base = getelementptr inbounds %struct.iovec, ptr %9, i32 0, i32 0
  %10 = load ptr, ptr %iov_base, align 8
  %11 = load i64, ptr %current_offset, align 8
  %add.ptr = getelementptr i8, ptr %10, i64 %11
  store ptr %add.ptr, ptr %base, align 8
  %12 = load ptr, ptr %iov, align 8
  %iov_len = getelementptr inbounds %struct.iovec, ptr %12, i32 0, i32 1
  %13 = load i64, ptr %iov_len, align 8
  %14 = load i64, ptr %current_offset, align 8
  %sub = sub i64 %13, %14
  store i64 %sub, ptr %_a10, align 8
  %15 = load i64, ptr %bytes.addr, align 8
  store i64 %15, ptr %_b11, align 8
  %16 = load i64, ptr %_a10, align 8
  %17 = load i64, ptr %_b11, align 8
  %cmp2 = icmp ult i64 %16, %17
  br i1 %cmp2, label %cond.true, label %cond.false

cond.true:                                        ; preds = %while.body
  %18 = load i64, ptr %_a10, align 8
  br label %cond.end

cond.false:                                       ; preds = %while.body
  %19 = load i64, ptr %_b11, align 8
  br label %cond.end

cond.end:                                         ; preds = %cond.false, %cond.true
  %cond = phi i64 [ %18, %cond.true ], [ %19, %cond.false ]
  store i64 %cond, ptr %tmp, align 8
  %20 = load i64, ptr %tmp, align 8
  store i64 %20, ptr %len, align 8
  %21 = load ptr, ptr %base, align 8
  %22 = load i64, ptr %len, align 8
  %call3 = call zeroext i1 @buffer_is_zero(ptr noundef %21, i64 noundef %22)
  br i1 %call3, label %if.end5, label %if.then4

if.then4:                                         ; preds = %cond.end
  store i1 false, ptr %retval, align 1
  br label %return

if.end5:                                          ; preds = %cond.end
  store i64 0, ptr %current_offset, align 8
  %23 = load i64, ptr %len, align 8
  %24 = load i64, ptr %bytes.addr, align 8
  %sub6 = sub i64 %24, %23
  store i64 %sub6, ptr %bytes.addr, align 8
  %25 = load ptr, ptr %iov, align 8
  %incdec.ptr = getelementptr %struct.iovec, ptr %25, i32 1
  store ptr %incdec.ptr, ptr %iov, align 8
  br label %while.cond, !llvm.loop !19

while.end:                                        ; preds = %while.cond
  store i1 true, ptr %retval, align 1
  br label %return

return:                                           ; preds = %while.end, %if.then4
  %26 = load i1, ptr %retval, align 1
  ret i1 %26
}