; Function Attrs: nounwind sspstrong uwtable
define dso_local noundef zeroext i1 @qemu_iovec_is_zero(ptr noundef readonly captures(none) %qiov, i64 noundef %offset, i64 noundef %bytes) local_unnamed_addr #0 {
entry:
  %add = add i64 %bytes, %offset
  %size = getelementptr inbounds nuw i8, ptr %qiov, i64 32
  %0 = load i64, ptr %size, align 8
  %cmp.not = icmp ugt i64 %add, %0
  br i1 %cmp.not, label %if.else, label %if.end

if.else:                                          ; preds = %entry
  tail call void @__assert_fail(ptr noundef nonnull @.str.10, ptr noundef nonnull @.str.1, i32 noundef 427, ptr noundef nonnull @__PRETTY_FUNCTION__.qemu_iovec_is_zero) #17
  unreachable

if.end:                                           ; preds = %entry
  %1 = load ptr, ptr %qiov, align 8
  %cmp.not7.i = icmp eq i64 %offset, 0
  br i1 %cmp.not7.i, label %iov_skip_offset.exit, label %land.rhs.i

land.rhs.i:                                       ; preds = %if.end, %while.body.i
  %iov.addr.09.i = phi ptr [ %incdec.ptr.i, %while.body.i ], [ %1, %if.end ]
  %offset.addr.08.i = phi i64 [ %sub.i, %while.body.i ], [ %offset, %if.end ]
  %iov_len.i = getelementptr inbounds nuw i8, ptr %iov.addr.09.i, i64 8
  %2 = load i64, ptr %iov_len.i, align 8
  %cmp1.not.i = icmp ult i64 %offset.addr.08.i, %2
  br i1 %cmp1.not.i, label %iov_skip_offset.exit, label %while.body.i

while.body.i:                                     ; preds = %land.rhs.i
  %sub.i = sub nuw i64 %offset.addr.08.i, %2
  %incdec.ptr.i = getelementptr i8, ptr %iov.addr.09.i, i64 16
  %cmp.not.i = icmp eq i64 %sub.i, 0
  br i1 %cmp.not.i, label %iov_skip_offset.exit, label %land.rhs.i, !llvm.loop !18

iov_skip_offset.exit:                             ; preds = %land.rhs.i, %while.body.i, %if.end
  %offset.addr.0.lcssa.i = phi i64 [ 0, %if.end ], [ %offset.addr.08.i, %land.rhs.i ], [ 0, %while.body.i ]
  %iov.addr.0.lcssa.i = phi ptr [ %1, %if.end ], [ %iov.addr.09.i, %land.rhs.i ], [ %incdec.ptr.i, %while.body.i ]
  %tobool.not11 = icmp eq i64 %bytes, 0
  br i1 %tobool.not11, label %return, label %while.body

while.body:                                       ; preds = %iov_skip_offset.exit, %while.body
  %bytes.addr.014 = phi i64 [ %sub6, %while.body ], [ %bytes, %iov_skip_offset.exit ]
  %iov.013 = phi ptr [ %incdec.ptr, %while.body ], [ %iov.addr.0.lcssa.i, %iov_skip_offset.exit ]
  %current_offset.012 = phi i64 [ 0, %while.body ], [ %offset.addr.0.lcssa.i, %iov_skip_offset.exit ]
  %3 = load ptr, ptr %iov.013, align 8
  %add.ptr = getelementptr i8, ptr %3, i64 %current_offset.012
  %iov_len = getelementptr inbounds nuw i8, ptr %iov.013, i64 8
  %4 = load i64, ptr %iov_len, align 8
  %sub = sub i64 %4, %current_offset.012
  %cond = tail call i64 @llvm.umin.i64(i64 %sub, i64 %bytes.addr.014)
  %call3 = tail call zeroext i1 @buffer_is_zero(ptr noundef %add.ptr, i64 noundef %cond) #19
  %sub6 = sub i64 %bytes.addr.014, %cond
  %incdec.ptr = getelementptr i8, ptr %iov.013, i64 16
  %tobool.not = icmp ne i64 %sub6, 0
  %or.cond.not = and i1 %tobool.not, %call3
  br i1 %or.cond.not, label %while.body, label %return, !llvm.loop !19

return:                                           ; preds = %while.body, %iov_skip_offset.exit
  %tobool.not.lcssa = phi i1 [ true, %iov_skip_offset.exit ], [ %call3, %while.body ]
  ret i1 %tobool.not.lcssa
}